target datalayout = "e-m:e-p270:32:32-p271:32:32-p272:64:64-i64:64-i128:128-f80:128-n8:16:32:64-S128"
target triple = "x86_64-pc-linux-gnu"

%struct.quic_txpim_st = type { %struct.quic_txpim_pkt_ex_list, i64 }
%struct.quic_txpim_pkt_ex_list = type { ptr, ptr }
%struct.quic_txpim_pkt_ex_st = type { %struct.quic_txpim_pkt_st, ptr, ptr, ptr, i64, i64, i8 }
%struct.quic_txpim_pkt_st = type { %struct.ossl_ackm_tx_pkt_st, ptr, ptr, i8, i8 }
%struct.ossl_ackm_tx_pkt_st = type { i64, i64, %struct.OSSL_TIME, i64, i8, ptr, ptr, ptr, ptr, %struct.anon, ptr, ptr }
%struct.OSSL_TIME = type { i64 }
%struct.anon = type { ptr, ptr }

@.str = private unnamed_addr constant [33 x i8] c"../openssl/ssl/quic/quic_txpim.c\00", align 1

; Function Attrs: nounwind uwtable
define void @ossl_quic_txpim_pkt_clear_chunks(ptr noundef %0) #0 {
  %2 = alloca ptr, align 8
  %3 = alloca ptr, align 8
  store ptr %0, ptr %2, align 8, !tbaa !36
  call void @llvm.lifetime.start.p0(i64 8, ptr %3) #5
  %4 = load ptr, ptr %2, align 8, !tbaa !36
  store ptr %4, ptr %3, align 8, !tbaa !13
  %5 = load ptr, ptr %3, align 8, !tbaa !13
  %6 = getelementptr inbounds nuw %struct.quic_txpim_pkt_ex_st, ptr %5, i32 0, i32 4
  store i64 0, ptr %6, align 8, !tbaa !43
  call void @llvm.lifetime.end.p0(i64 8, ptr %3) #5
  ret void
}

; Function Attrs: nounwind uwtable
define internal void @list_insert_tail(ptr noundef %0, ptr noundef %1) #0 {
  %3 = alloca ptr, align 8
  %4 = alloca ptr, align 8
  store ptr %0, ptr %3, align 8, !tbaa !8
  store ptr %1, ptr %4, align 8, !tbaa !13
  %5 = load ptr, ptr %3, align 8, !tbaa !8
  %6 = getelementptr inbounds nuw %struct.quic_txpim_pkt_ex_list, ptr %5, i32 0, i32 1
  %7 = load ptr, ptr %6, align 8, !tbaa !29
  %8 = load ptr, ptr %4, align 8, !tbaa !13
  %9 = getelementptr inbounds nuw %struct.quic_txpim_pkt_ex_st, ptr %8, i32 0, i32 1
  store ptr %7, ptr %9, align 8, !tbaa !35
  %10 = load ptr, ptr %4, align 8, !tbaa !13
  %11 = getelementptr inbounds nuw %struct.quic_txpim_pkt_ex_st, ptr %10, i32 0, i32 2
  store ptr null, ptr %11, align 8, !tbaa !14
  %12 = load ptr, ptr %4, align 8, !tbaa !13
  %13 = load ptr, ptr %3, align 8, !tbaa !8
  %14 = getelementptr inbounds nuw %struct.quic_txpim_pkt_ex_list, ptr %13, i32 0, i32 1
  store ptr %12, ptr %14, align 8, !tbaa !29
  %15 = load ptr, ptr %4, align 8, !tbaa !13
  %16 = getelementptr inbounds nuw %struct.quic_txpim_pkt_ex_st, ptr %15, i32 0, i32 1
  %17 = load ptr, ptr %16, align 8, !tbaa !35
  %18 = icmp ne ptr %17, null
  br i1 %18, label %19, label %25

19:                                               ; preds = %2
  %20 = load ptr, ptr %4, align 8, !tbaa !13
  %21 = load ptr, ptr %4, align 8, !tbaa !13
  %22 = getelementptr inbounds nuw %struct.quic_txpim_pkt_ex_st, ptr %21, i32 0, i32 1
  %23 = load ptr, ptr %22, align 8, !tbaa !35
  %24 = getelementptr inbounds nuw %struct.quic_txpim_pkt_ex_st, ptr %23, i32 0, i32 2
  store ptr %20, ptr %24, align 8, !tbaa !14
  br label %25

25:                                               ; preds = %19, %2
  %26 = load ptr, ptr %3, align 8, !tbaa !8
  %27 = getelementptr inbounds nuw %struct.quic_txpim_pkt_ex_list, ptr %26, i32 0, i32 0
  %28 = load ptr, ptr %27, align 8, !tbaa !10
  %29 = icmp eq ptr %28, null
  br i1 %29, label %30, label %34

30:                                               ; preds = %25
  %31 = load ptr, ptr %4, align 8, !tbaa !13
  %32 = load ptr, ptr %3, align 8, !tbaa !8
  %33 = getelementptr inbounds nuw %struct.quic_txpim_pkt_ex_list, ptr %32, i32 0, i32 0
  store ptr %31, ptr %33, align 8, !tbaa !10
  br label %34

34:                                               ; preds = %30, %25
  ret void
}

; Function Attrs: nounwind uwtable
define internal void @list_remove(ptr noundef %0, ptr noundef %1) #0 {
  %3 = alloca ptr, align 8
  %4 = alloca ptr, align 8
  store ptr %0, ptr %3, align 8, !tbaa !8
  store ptr %1, ptr %4, align 8, !tbaa !13
  %5 = load ptr, ptr %3, align 8, !tbaa !8
  %6 = getelementptr inbounds nuw %struct.quic_txpim_pkt_ex_list, ptr %5, i32 0, i32 0
  %7 = load ptr, ptr %6, align 8, !tbaa !10
  %8 = load ptr, ptr %4, align 8, !tbaa !13
  %9 = icmp eq ptr %7, %8
  br i1 %9, label %10, label %16

10:                                               ; preds = %2
  %11 = load ptr, ptr %4, align 8, !tbaa !13
  %12 = getelementptr inbounds nuw %struct.quic_txpim_pkt_ex_st, ptr %11, i32 0, i32 2
  %13 = load ptr, ptr %12, align 8, !tbaa !14
  %14 = load ptr, ptr %3, align 8, !tbaa !8
  %15 = getelementptr inbounds nuw %struct.quic_txpim_pkt_ex_list, ptr %14, i32 0, i32 0
  store ptr %13, ptr %15, align 8, !tbaa !10
  br label %16

16:                                               ; preds = %10, %2
  %17 = load ptr, ptr %3, align 8, !tbaa !8
  %18 = getelementptr inbounds nuw %struct.quic_txpim_pkt_ex_list, ptr %17, i32 0, i32 1
  %19 = load ptr, ptr %18, align 8, !tbaa !29
  %20 = load ptr, ptr %4, align 8, !tbaa !13
  %21 = icmp eq ptr %19, %20
  br i1 %21, label %22, label %28

22:                                               ; preds = %16
  %23 = load ptr, ptr %4, align 8, !tbaa !13
  %24 = getelementptr inbounds nuw %struct.quic_txpim_pkt_ex_st, ptr %23, i32 0, i32 1
  %25 = load ptr, ptr %24, align 8, !tbaa !35
  %26 = load ptr, ptr %3, align 8, !tbaa !8
  %27 = getelementptr inbounds nuw %struct.quic_txpim_pkt_ex_list, ptr %26, i32 0, i32 1
  store ptr %25, ptr %27, align 8, !tbaa !29
  br label %28

28:                                               ; preds = %22, %16
  %29 = load ptr, ptr %4, align 8, !tbaa !13
  %30 = getelementptr inbounds nuw %struct.quic_txpim_pkt_ex_st, ptr %29, i32 0, i32 1
  %31 = load ptr, ptr %30, align 8, !tbaa !35
  %32 = icmp ne ptr %31, null
  br i1 %32, label %33, label %41

33:                                               ; preds = %28
  %34 = load ptr, ptr %4, align 8, !tbaa !13
  %35 = getelementptr inbounds nuw %struct.quic_txpim_pkt_ex_st, ptr %34, i32 0, i32 2
  %36 = load ptr, ptr %35, align 8, !tbaa !14
  %37 = load ptr, ptr %4, align 8, !tbaa !13
  %38 = getelementptr inbounds nuw %struct.quic_txpim_pkt_ex_st, ptr %37, i32 0, i32 1
  %39 = load ptr, ptr %38, align 8, !tbaa !35
  %40 = getelementptr inbounds nuw %struct.quic_txpim_pkt_ex_st, ptr %39, i32 0, i32 2
  store ptr %36, ptr %40, align 8, !tbaa !14
  br label %41

41:                                               ; preds = %33, %28
  %42 = load ptr, ptr %4, align 8, !tbaa !13
  %43 = getelementptr inbounds nuw %struct.quic_txpim_pkt_ex_st, ptr %42, i32 0, i32 2
  %44 = load ptr, ptr %43, align 8, !tbaa !14
  %45 = icmp ne ptr %44, null
  br i1 %45, label %46, label %54

46:                                               ; preds = %41
  %47 = load ptr, ptr %4, align 8, !tbaa !13
  %48 = getelementptr inbounds nuw %struct.quic_txpim_pkt_ex_st, ptr %47, i32 0, i32 1
  %49 = load ptr, ptr %48, align 8, !tbaa !35
  %50 = load ptr, ptr %4, align 8, !tbaa !13
  %51 = getelementptr inbounds nuw %struct.quic_txpim_pkt_ex_st, ptr %50, i32 0, i32 2
  %52 = load ptr, ptr %51, align 8, !tbaa !14
  %53 = getelementptr inbounds nuw %struct.quic_txpim_pkt_ex_st, ptr %52, i32 0, i32 1
  store ptr %49, ptr %53, align 8, !tbaa !35
  br label %54

54:                                               ; preds = %46, %41
  %55 = load ptr, ptr %4, align 8, !tbaa !13
  %56 = getelementptr inbounds nuw %struct.quic_txpim_pkt_ex_st, ptr %55, i32 0, i32 2
  store ptr null, ptr %56, align 8, !tbaa !14
  %57 = load ptr, ptr %4, align 8, !tbaa !13
  %58 = getelementptr inbounds nuw %struct.quic_txpim_pkt_ex_st, ptr %57, i32 0, i32 1
  store ptr null, ptr %58, align 8, !tbaa !35
  ret void
}

; Function Attrs: nounwind uwtable
define internal void @txpim_clear(ptr noundef %0) #0 {
  %2 = alloca ptr, align 8
  store ptr %0, ptr %2, align 8, !tbaa !13
  %3 = load ptr, ptr %2, align 8, !tbaa !13
  %4 = getelementptr inbounds nuw %struct.quic_txpim_pkt_ex_st, ptr %3, i32 0, i32 0
  %5 = getelementptr inbounds nuw %struct.quic_txpim_pkt_st, ptr %4, i32 0, i32 0
  call void @llvm.memset.p0.i64(ptr align 8 %5, i8 0, i64 104, i1 false)
  %6 = load ptr, ptr %2, align 8, !tbaa !13
  %7 = getelementptr inbounds nuw %struct.quic_txpim_pkt_ex_st, ptr %6, i32 0, i32 0
  call void @ossl_quic_txpim_pkt_clear_chunks(ptr noundef %7)
  %8 = load ptr, ptr %2, align 8, !tbaa !13
  %9 = getelementptr inbounds nuw %struct.quic_txpim_pkt_ex_st, ptr %8, i32 0, i32 0
  %10 = getelementptr inbounds nuw %struct.quic_txpim_pkt_st, ptr %9, i32 0, i32 1
  store ptr null, ptr %10, align 8, !tbaa !33
  %11 = load ptr, ptr %2, align 8, !tbaa !13
  %12 = getelementptr inbounds nuw %struct.quic_txpim_pkt_ex_st, ptr %11, i32 0, i32 0
  %13 = getelementptr inbounds nuw %struct.quic_txpim_pkt_st, ptr %12, i32 0, i32 2
  store ptr null, ptr %13, align 8, !tbaa !34
  %14 = load ptr, ptr %2, align 8, !tbaa !13
  %15 = getelementptr inbounds nuw %struct.quic_txpim_pkt_ex_st, ptr %14, i32 0, i32 0
  %16 = getelementptr inbounds nuw %struct.quic_txpim_pkt_st, ptr %15, i32 0, i32 4
  %17 = load i8, ptr %16, align 1
  %18 = and i8 %17, -2
  %19 = or i8 %18, 0
  store i8 %19, ptr %16, align 1
  %20 = load ptr, ptr %2, align 8, !tbaa !13
  %21 = getelementptr inbounds nuw %struct.quic_txpim_pkt_ex_st, ptr %20, i32 0, i32 0
  %22 = getelementptr inbounds nuw %struct.quic_txpim_pkt_st, ptr %21, i32 0, i32 4
  %23 = load i8, ptr %22, align 1
  %24 = and i8 %23, -3
  %25 = or i8 %24, 0
  store i8 %25, ptr %22, align 1
  %26 = load ptr, ptr %2, align 8, !tbaa !13
  %27 = getelementptr inbounds nuw %struct.quic_txpim_pkt_ex_st, ptr %26, i32 0, i32 0
  %28 = getelementptr inbounds nuw %struct.quic_txpim_pkt_st, ptr %27, i32 0, i32 4
  %29 = load i8, ptr %28, align 1
  %30 = and i8 %29, -5
  %31 = or i8 %30, 0
  store i8 %31, ptr %28, align 1
  %32 = load ptr, ptr %2, align 8, !tbaa !13
  %33 = getelementptr inbounds nuw %struct.quic_txpim_pkt_ex_st, ptr %32, i32 0, i32 0
  %34 = getelementptr inbounds nuw %struct.quic_txpim_pkt_st, ptr %33, i32 0, i32 4
  %35 = load i8, ptr %34, align 1
  %36 = and i8 %35, -9
  %37 = or i8 %36, 0
  store i8 %37, ptr %34, align 1
  %38 = load ptr, ptr %2, align 8, !tbaa !13
  %39 = getelementptr inbounds nuw %struct.quic_txpim_pkt_ex_st, ptr %38, i32 0, i32 0
  %40 = getelementptr inbounds nuw %struct.quic_txpim_pkt_st, ptr %39, i32 0, i32 4
  %41 = load i8, ptr %40, align 1
  %42 = and i8 %41, -17
  %43 = or i8 %42, 0
  store i8 %43, ptr %40, align 1
  %44 = load ptr, ptr %2, align 8, !tbaa !13
  %45 = getelementptr inbounds nuw %struct.quic_txpim_pkt_ex_st, ptr %44, i32 0, i32 0
  %46 = getelementptr inbounds nuw %struct.quic_txpim_pkt_st, ptr %45, i32 0, i32 4
  %47 = load i8, ptr %46, align 1
  %48 = and i8 %47, -33
  %49 = or i8 %48, 0
  store i8 %49, ptr %46, align 1
  ret void
}

; Function Attrs: nounwind uwtable
define internal ptr @txpim_get_free(ptr noundef %0) #0 {
  %2 = alloca ptr, align 8
  %3 = alloca ptr, align 8
  %4 = alloca ptr, align 8
  %5 = alloca i32, align 4
  store ptr %0, ptr %3, align 8, !tbaa !3
  call void @llvm.lifetime.start.p0(i64 8, ptr %4) #5
  %6 = load ptr, ptr %3, align 8, !tbaa !3
  %7 = getelementptr inbounds nuw %struct.quic_txpim_st, ptr %6, i32 0, i32 0
  %8 = getelementptr inbounds nuw %struct.quic_txpim_pkt_ex_list, ptr %7, i32 0, i32 0
  %9 = load ptr, ptr %8, align 8, !tbaa !32
  store ptr %9, ptr %4, align 8, !tbaa !13
  %10 = load ptr, ptr %4, align 8, !tbaa !13
  %11 = icmp ne ptr %10, null
  br i1 %11, label %12, label %14

12:                                               ; preds = %1
  %13 = load ptr, ptr %4, align 8, !tbaa !13
  store ptr %13, ptr %2, align 8
  store i32 1, ptr %5, align 4
  br label %24

14:                                               ; preds = %1
  %15 = call noalias ptr @CRYPTO_zalloc(i64 noundef 176, ptr noundef @.str, i32 noundef 99)
  store ptr %15, ptr %4, align 8, !tbaa !13
  %16 = load ptr, ptr %4, align 8, !tbaa !13
  %17 = icmp eq ptr %16, null
  br i1 %17, label %18, label %19

18:                                               ; preds = %14
  store ptr null, ptr %2, align 8
  store i32 1, ptr %5, align 4
  br label %24

19:                                               ; preds = %14
  %20 = load ptr, ptr %3, align 8, !tbaa !3
  %21 = getelementptr inbounds nuw %struct.quic_txpim_st, ptr %20, i32 0, i32 0
  %22 = load ptr, ptr %4, align 8, !tbaa !13
  call void @list_insert_tail(ptr noundef %21, ptr noundef %22)
  %23 = load ptr, ptr %4, align 8, !tbaa !13
  store ptr %23, ptr %2, align 8
  store i32 1, ptr %5, align 4
  br label %24

24:                                               ; preds = %19, %18, %12
  call void @llvm.lifetime.end.p0(i64 8, ptr %4) #5
  %25 = load ptr, ptr %2, align 8
  ret ptr %25
}

; Function Attrs: nounwind uwtable
define ptr @ossl_quic_txpim_pkt_alloc(ptr noundef %0) #0 {
  %2 = alloca ptr, align 8
  %3 = alloca ptr, align 8
  %4 = alloca ptr, align 8
  %5 = alloca i32, align 4
  store ptr %0, ptr %3, align 8, !tbaa !3
  call void @llvm.lifetime.start.p0(i64 8, ptr %4) #5
  %6 = load ptr, ptr %3, align 8, !tbaa !3
  %7 = call ptr @txpim_get_free(ptr noundef %6)
  store ptr %7, ptr %4, align 8, !tbaa !13
  %8 = load ptr, ptr %4, align 8, !tbaa !13
  %9 = icmp eq ptr %8, null
  br i1 %9, label %10, label %11

10:                                               ; preds = %1
  store ptr null, ptr %2, align 8
  store i32 1, ptr %5, align 4
  br label %22

11:                                               ; preds = %1
  %12 = load ptr, ptr %4, align 8, !tbaa !13
  call void @txpim_clear(ptr noundef %12)
  %13 = load ptr, ptr %3, align 8, !tbaa !3
  %14 = getelementptr inbounds nuw %struct.quic_txpim_st, ptr %13, i32 0, i32 0
  %15 = load ptr, ptr %4, align 8, !tbaa !13
  call void @list_remove(ptr noundef %14, ptr noundef %15)
  %16 = load ptr, ptr %3, align 8, !tbaa !3
  %17 = getelementptr inbounds nuw %struct.quic_txpim_st, ptr %16, i32 0, i32 1
  %18 = load i64, ptr %17, align 8, !tbaa !30
  %19 = add i64 %18, 1
  store i64 %19, ptr %17, align 8, !tbaa !30
  %20 = load ptr, ptr %4, align 8, !tbaa !13
  %21 = getelementptr inbounds nuw %struct.quic_txpim_pkt_ex_st, ptr %20, i32 0, i32 0
  store ptr %21, ptr %2, align 8
  store i32 1, ptr %5, align 4
  br label %22

22:                                               ; preds = %11, %10
  call void @llvm.lifetime.end.p0(i64 8, ptr %4) #5
  %23 = load ptr, ptr %2, align 8
  ret ptr %23
}