; Function Attrs: nounwind uwtable
define noundef ptr @ossl_quic_txpim_pkt_alloc(ptr noundef captures(none) %0) local_unnamed_addr #0 {
  %2 = load ptr, ptr %0, align 8, !tbaa !24
  %.not.i = icmp eq ptr %2, null
  br i1 %.not.i, label %3, label %17

3:                                                ; preds = %1
  %4 = tail call noalias ptr @CRYPTO_zalloc(i64 noundef 176, ptr noundef nonnull @.str, i32 noundef 99) #11
  %5 = icmp eq ptr %4, null
  br i1 %5, label %txpim_get_free.exit, label %6

6:                                                ; preds = %3
  %7 = getelementptr inbounds nuw i8, ptr %0, i64 8
  %8 = load ptr, ptr %7, align 8, !tbaa !26
  %9 = getelementptr inbounds nuw i8, ptr %4, i64 128
  store ptr %8, ptr %9, align 8, !tbaa !27
  %10 = getelementptr inbounds nuw i8, ptr %4, i64 136
  store ptr null, ptr %10, align 8, !tbaa !9
  store ptr %4, ptr %7, align 8, !tbaa !26
  %.not.i.i = icmp eq ptr %8, null
  br i1 %.not.i.i, label %13, label %11

11:                                               ; preds = %6
  %12 = getelementptr inbounds nuw i8, ptr %8, i64 136
  store ptr %4, ptr %12, align 8, !tbaa !9
  br label %13

13:                                               ; preds = %11, %6
  %14 = load ptr, ptr %0, align 8, !tbaa !3
  %15 = icmp eq ptr %14, null
  br i1 %15, label %16, label %17

16:                                               ; preds = %13
  store ptr %4, ptr %0, align 8, !tbaa !3
  br label %17

17:                                               ; preds = %1, %13, %16
  %.0.i.ph = phi ptr [ %4, %16 ], [ %4, %13 ], [ %2, %1 ]
  %18 = getelementptr inbounds nuw i8, ptr %.0.i.ph, i64 152
  store i64 0, ptr %18, align 8, !tbaa !28
  %19 = getelementptr inbounds nuw i8, ptr %.0.i.ph, i64 121
  tail call void @llvm.memset.p0.i64(ptr noundef nonnull align 8 dereferenceable(120) %.0.i.ph, i8 0, i64 120, i1 false)
  %20 = load i8, ptr %19, align 1
  %21 = and i8 %20, -64
  store i8 %21, ptr %19, align 1
  %22 = load ptr, ptr %0, align 8, !tbaa !3
  %23 = icmp eq ptr %22, %.0.i.ph
  br i1 %23, label %24, label %27

24:                                               ; preds = %17
  %25 = getelementptr inbounds nuw i8, ptr %.0.i.ph, i64 136
  %26 = load ptr, ptr %25, align 8, !tbaa !9
  store ptr %26, ptr %0, align 8, !tbaa !3
  br label %27

27:                                               ; preds = %24, %17
  %28 = getelementptr inbounds nuw i8, ptr %0, i64 8
  %29 = load ptr, ptr %28, align 8, !tbaa !26
  %30 = icmp eq ptr %29, %.0.i.ph
  %31 = getelementptr inbounds nuw i8, ptr %.0.i.ph, i64 128
  %32 = load ptr, ptr %31, align 8, !tbaa !27
  br i1 %30, label %33, label %._crit_edge.i

33:                                               ; preds = %27
  store ptr %32, ptr %28, align 8, !tbaa !26
  br label %._crit_edge.i

._crit_edge.i:                                    ; preds = %33, %27
  %.not.i9 = icmp eq ptr %32, null
  %.phi.trans.insert20.i = getelementptr inbounds nuw i8, ptr %.0.i.ph, i64 136
  %.pre21.i = load ptr, ptr %.phi.trans.insert20.i, align 8, !tbaa !9
  br i1 %.not.i9, label %._crit_edge19.i, label %34

34:                                               ; preds = %._crit_edge.i
  %35 = getelementptr inbounds nuw i8, ptr %32, i64 136
  store ptr %.pre21.i, ptr %35, align 8, !tbaa !9
  br label %._crit_edge19.i

._crit_edge19.i:                                  ; preds = %34, %._crit_edge.i
  %.not18.i = icmp eq ptr %.pre21.i, null
  br i1 %.not18.i, label %list_remove.exit, label %36

36:                                               ; preds = %._crit_edge19.i
  %37 = getelementptr inbounds nuw i8, ptr %.pre21.i, i64 128
  store ptr %32, ptr %37, align 8, !tbaa !27
  br label %list_remove.exit

list_remove.exit:                                 ; preds = %._crit_edge19.i, %36
  tail call void @llvm.memset.p0.i64(ptr noundef nonnull align 8 dereferenceable(16) %31, i8 0, i64 16, i1 false)
  %38 = getelementptr inbounds nuw i8, ptr %0, i64 16
  %39 = load i64, ptr %38, align 8, !tbaa !29
  %40 = add i64 %39, 1
  store i64 %40, ptr %38, align 8, !tbaa !29
  br label %txpim_get_free.exit

txpim_get_free.exit:                              ; preds = %3, %list_remove.exit
  %.0 = phi ptr [ %.0.i.ph, %list_remove.exit ], [ null, %3 ]
  ret ptr %.0
}